target datalayout = "e-m:e-p270:32:32-p271:32:32-p272:64:64-i64:64-i128:128-f80:128-n8:16:32:64-S128"
target triple = "x86_64-unknown-linux-gnu"

%struct.of_dpa_flow_action = type { i32, %struct.anon.11, %struct.anon.12 }
%struct.anon.11 = type { i32, i32, i16 }
%struct.anon.12 = type { i16, i32, i8, i16 }
%struct.of_dpa_flow_context = type { i32, i32, ptr, i32, %struct.eth_header, %struct.vlan_header, %struct.vlan_header, ptr, %struct.of_dpa_flow_pkt_fields, %struct.of_dpa_flow_action }
%struct.eth_header = type { [6 x i8], [6 x i8], i16 }
%struct.vlan_header = type { i16, i16 }
%struct.of_dpa_flow_pkt_fields = type { i32, ptr, ptr, ptr, ptr, ptr, ptr, ptr }

; Function Attrs: nounwind sspstrong uwtable
define internal void @of_dpa_ig_port_miss(ptr noundef %fc) #0 {
entry:
  %fc.addr = alloca ptr, align 8
  %port = alloca i32, align 4
  store ptr %fc, ptr %fc.addr, align 8
  %0 = load ptr, ptr %fc.addr, align 8
  %in_pport = getelementptr inbounds %struct.of_dpa_flow_context, ptr %0, i32 0, i32 0
  %1 = load i32, ptr %in_pport, align 8
  %call = call zeroext i1 @fp_port_from_pport(i32 noundef %1, ptr noundef %port)
  br i1 %call, label %if.then, label %if.end

if.then:                                          ; preds = %entry
  %2 = load ptr, ptr %fc.addr, align 8
  call void @of_dpa_flow_ig_tbl(ptr noundef %2, i32 noundef 10)
  br label %if.end

if.end:                                           ; preds = %if.then, %entry
  ret void
}