; Function Attrs: nounwind sspstrong uwtable
define internal void @of_dpa_ig_port_miss(ptr noundef %fc) #0 {
entry:
  %port = alloca i32, align 4
  %0 = load i32, ptr %fc, align 8
  %call = call zeroext i1 @fp_port_from_pport(i32 noundef %0, ptr noundef nonnull %port) #18
  br i1 %call, label %if.then, label %if.end

if.then:                                          ; preds = %entry
  call fastcc void @of_dpa_flow_ig_tbl(ptr noundef nonnull %fc, i32 noundef 10)
  br label %if.end

if.end:                                           ; preds = %if.then, %entry
  ret void
}